; Function Attrs: mustprogress nofree norecurse nosync nounwind willreturn memory(readwrite, inaccessiblemem: none) uwtable
define void @_ZNK3vcg3tri2io9BreHeader6MatrixEv(ptr dead_on_unwind noalias nocapture writable writeonly sret(%"class.vcg::Matrix44") align 4 %0, ptr nocapture noundef nonnull readonly align 8 dereferenceable(16) %1) local_unnamed_addr #16 align 2 {
  %3 = getelementptr inbounds i8, ptr %1, i64 8
  %4 = load ptr, ptr %3, align 8
  %5 = getelementptr inbounds i8, ptr %4, i64 16
  %6 = load i64, ptr %5, align 8
  %7 = getelementptr i8, ptr %4, i64 %6
  %scevgep15 = getelementptr i8, ptr %7, i64 128
  tail call void @llvm.memcpy.p0.p0.i64(ptr noundef nonnull align 4 dereferenceable(64) %0, ptr noundef nonnull align 4 dereferenceable(64) %scevgep15, i64 64, i1 false)
  ret void
}